#include <math.h>
#include <stdio.h>
#include <stdlib.h>
#include <string.h>

int m[100],i;
void sb(int,int);
int main()
{
	int n,a[100];
 scanf("%d",&n);
 for(i=0;i<n;i++)
	 scanf("%d",&a[i]);   
 for(i=0;i<n;i++)
 {   
	 sb(a[i],2);
  printf("%d\n",m[i]+1);
 }
  return 0;
}
void sb(int c,int d)
{
	 int v; 
	 for(v=d;v<=sqrt(c);v++)
	 {
		 if(c%v==0)
		 {
			 m[i]++;  
             sb(c/v,v);}}
}	  
        


